target datalayout = "e-m:e-p270:32:32-p271:32:32-p272:64:64-i64:64-i128:128-f80:128-n8:16:32:64-S128"
target triple = "x86_64-unknown-linux-gnu"

%"class.std::vector" = type { %"struct.std::_Vector_base" }
%"struct.std::_Vector_base" = type { %"struct.std::_Vector_base<unsigned long, std::allocator<unsigned long>>::_Vector_impl" }
%"struct.std::_Vector_base<unsigned long, std::allocator<unsigned long>>::_Vector_impl" = type { %"struct.std::_Vector_base<unsigned long, std::allocator<unsigned long>>::_Vector_impl_data" }
%"struct.std::_Vector_base<unsigned long, std::allocator<unsigned long>>::_Vector_impl_data" = type { ptr, ptr, ptr }
%"class.std::mutex" = type { %"class.std::__mutex_base" }
%"class.std::__mutex_base" = type { %union.pthread_mutex_t }
%union.pthread_mutex_t = type { %struct.__pthread_mutex_s }
%struct.__pthread_mutex_s = type { i32, i32, i32, i32, i32, i16, i16, %struct.__pthread_internal_list }
%struct.__pthread_internal_list = type { ptr, ptr }
%"class.facebook::velox::memory::MmapAllocator::SizeClass" = type { i64, i64, i64, i32, %"class.std::mutex", ptr, i32, i32, i32, %"class.std::vector", %"class.std::vector", %"class.std::vector", i64, i64, i64 }

; Function Attrs: mustprogress uwtable
define noundef zeroext i1 @_ZNK8facebook5velox6memory13MmapAllocator9SizeClass9isInRangeEPh(ptr noundef nonnull align 8 dereferenceable(192) %this, ptr noundef %ptr) #0 align 2 {
entry:
  %numPages.addr.i = alloca i64, align 8
  %retval = alloca i1, align 1
  %this.addr = alloca ptr, align 8
  %ptr.addr = alloca ptr, align 8
  store ptr %this, ptr %this.addr, align 8
  store ptr %ptr, ptr %ptr.addr, align 8
  %this1 = load ptr, ptr %this.addr, align 8
  %0 = load ptr, ptr %ptr.addr, align 8
  %address_ = getelementptr inbounds %"class.facebook::velox::memory::MmapAllocator::SizeClass", ptr %this1, i32 0, i32 5
  %1 = load ptr, ptr %address_, align 8
  %cmp = icmp uge ptr %0, %1
  br i1 %cmp, label %land.lhs.true, label %if.end7

land.lhs.true:                                    ; preds = %entry
  %2 = load ptr, ptr %ptr.addr, align 8
  %address_2 = getelementptr inbounds %"class.facebook::velox::memory::MmapAllocator::SizeClass", ptr %this1, i32 0, i32 5
  %3 = load ptr, ptr %address_2, align 8
  %byteSize_ = getelementptr inbounds %"class.facebook::velox::memory::MmapAllocator::SizeClass", ptr %this1, i32 0, i32 2
  %4 = load i64, ptr %byteSize_, align 8
  %add.ptr = getelementptr inbounds i8, ptr %3, i64 %4
  %cmp3 = icmp ult ptr %2, %add.ptr
  br i1 %cmp3, label %if.then, label %if.end7

if.then:                                          ; preds = %land.lhs.true
  %5 = load ptr, ptr %ptr.addr, align 8
  %address_4 = getelementptr inbounds %"class.facebook::velox::memory::MmapAllocator::SizeClass", ptr %this1, i32 0, i32 5
  %6 = load ptr, ptr %address_4, align 8
  %sub.ptr.lhs.cast = ptrtoint ptr %5 to i64
  %sub.ptr.rhs.cast = ptrtoint ptr %6 to i64
  %sub.ptr.sub = sub i64 %sub.ptr.lhs.cast, %sub.ptr.rhs.cast
  %unitSize_ = getelementptr inbounds %"class.facebook::velox::memory::MmapAllocator::SizeClass", ptr %this1, i32 0, i32 1
  %7 = load i64, ptr %unitSize_, align 8
  store i64 %7, ptr %numPages.addr.i, align 8
  %8 = load i64, ptr %numPages.addr.i, align 8
  %mul.i = mul i64 %8, 4096
  %rem = urem i64 %sub.ptr.sub, %mul.i
  %cmp5 = icmp ne i64 %rem, 0
  br i1 %cmp5, label %if.then6, label %if.end

if.then6:                                         ; preds = %if.then
  call void @llvm.trap()
  br label %if.end

if.end:                                           ; preds = %if.then6, %if.then
  store i1 true, ptr %retval, align 1
  br label %return

if.end7:                                          ; preds = %land.lhs.true, %entry
  store i1 false, ptr %retval, align 1
  br label %return

return:                                           ; preds = %if.end7, %if.end
  %9 = load i1, ptr %retval, align 1
  ret i1 %9
}