; Function Attrs: mustprogress nounwind memory(argmem: read, inaccessiblemem: write) uwtable
define noundef zeroext i1 @_ZNK8facebook5velox6memory13MmapAllocator9SizeClass9isInRangeEPh(ptr nocapture noundef nonnull readonly align 8 dereferenceable(192) %this, ptr noundef %ptr) local_unnamed_addr #19 align 2 {
entry:
  %address_ = getelementptr inbounds i8, ptr %this, i64 72
  %0 = load ptr, ptr %address_, align 8
  %cmp.not = icmp ule ptr %0, %ptr
  %byteSize_ = getelementptr inbounds i8, ptr %this, i64 16
  %1 = load i64, ptr %byteSize_, align 8
  %add.ptr = getelementptr inbounds i8, ptr %0, i64 %1
  %cmp3 = icmp ugt ptr %add.ptr, %ptr
  %or.cond = select i1 %cmp.not, i1 %cmp3, i1 false
  br i1 %or.cond, label %if.then, label %return

if.then:                                          ; preds = %entry
  %sub.ptr.lhs.cast = ptrtoint ptr %ptr to i64
  %sub.ptr.rhs.cast = ptrtoint ptr %0 to i64
  %sub.ptr.sub = sub i64 %sub.ptr.lhs.cast, %sub.ptr.rhs.cast
  %unitSize_ = getelementptr inbounds i8, ptr %this, i64 8
  %2 = load i64, ptr %unitSize_, align 8
  %mul.i = shl i64 %2, 12
  %rem = urem i64 %sub.ptr.sub, %mul.i
  %cmp5.not = icmp eq i64 %rem, 0
  br i1 %cmp5.not, label %return, label %if.then6

if.then6:                                         ; preds = %if.then
  tail call void @llvm.trap()
  unreachable

return:                                           ; preds = %entry, %if.then
  ret i1 %or.cond
}